; Function Attrs: mustprogress nounwind uwtable
define internal fastcc noundef i32 @_ZN12_GLOBAL__N_114ARCCastChecker13VisitCastExprEPN5clang8CastExprE(ptr noundef nonnull align 8 dereferenceable(17) %0, ptr nocapture noundef readonly %1) unnamed_addr #0 align 2 {
  %3 = load i32, ptr %1, align 8
  %4 = lshr i32 %3, 18
  %5 = and i32 %4, 127
  switch i32 %5, label %11 [
    i32 13, label %12
    i32 5, label %6
    i32 4, label %6
    i32 1, label %6
    i32 40, label %6
    i32 41, label %6
    i32 42, label %6
  ]

6:                                                ; preds = %2, %2, %2, %2, %2, %2
  %7 = getelementptr inbounds nuw i8, ptr %1, i64 16
  %8 = load ptr, ptr %7, align 8
  %9 = tail call noundef ptr @_ZN5clang4Expr12IgnoreParensEv(ptr noundef nonnull align 8 dereferenceable(16) %8) #19
  %10 = tail call fastcc noundef i32 @_ZN5clang15StmtVisitorBaseISt11add_pointerN12_GLOBAL__N_114ARCCastCheckerENS2_9ACCResultEJEE5VisitEPNS_4StmtE(ptr noundef nonnull align 1 dereferenceable(1) %0, ptr noundef %9)
  br label %12

11:                                               ; preds = %2
  br label %12

12:                                               ; preds = %2, %11, %6
  %.0 = phi i32 [ 0, %11 ], [ %10, %6 ], [ 1, %2 ]
  ret i32 %.0
}